target datalayout = "e-m:e-p270:32:32-p271:32:32-p272:64:64-i64:64-i128:128-f80:128-n8:16:32:64-S128"
target triple = "x86_64-pc-linux-gnu"

%struct.except_id_t = type { i64, i64 }
%struct._packet_info = type { ptr, ptr, i32, i32, %struct.nstime_t, %struct.nstime_t, %struct.nstime_t, i8, ptr, ptr, ptr, ptr, %struct._address, %struct._address, %struct._address, %struct._address, %struct._address, %struct._address, i32, ptr, i8, [3 x i8], %struct.anon, i32, i32, i32, i32, ptr, i8, ptr, ptr, i16, i16, i32, i32, i16, i32, i32, ptr, ptr, ptr, i8, i8, i16, i16, i16, i32, i16, i16, ptr, ptr, ptr, ptr, ptr, i32, i32 }
%struct.nstime_t = type { i64, i32 }
%struct._address = type { i32, i32, ptr, ptr }
%struct.anon = type { i8, [3 x i8] }
%struct.except_stacknode = type { ptr, i32, %union.anon }
%union.anon = type { ptr }
%struct.except_catch = type { ptr, i64, %struct.except_t, [1 x %struct.__jmp_buf_tag] }
%struct.except_t = type { %struct.except_id_t, ptr, ptr }
%struct.__jmp_buf_tag = type { [8 x i64], i32, %struct.__sigset_t }
%struct.__sigset_t = type { [16 x i64] }

@ett_nas_5gs_user_data_cont = internal global i32 0, align 4
@g_nas_5gs_decode_user_data_container_as = internal global i32 0, align 4
@ipv4_handle = internal global ptr null, align 8
@ipv6_handle = internal global ptr null, align 8
@ethernet_handle = internal global ptr null, align 8
@non_ip_data_handle = internal global ptr null, align 8
@.str.1537 = private unnamed_addr constant [2 x i8] c"/\00", align 1
@.str.1538 = private unnamed_addr constant [3 x i8] c", \00", align 1
@nas_5gs_decode_user_data_cont.catch_spec = internal constant [1 x %struct.except_id_t] [%struct.except_id_t { i64 1, i64 0 }], align 16

; Function Attrs: null_pointer_is_valid sspstrong uwtable
define internal void @nas_5gs_decode_user_data_cont(ptr noundef %0, ptr noundef %1, ptr noundef %2, i32 noundef %3, i32 noundef %4, i32 noundef %5) #0 {
  %7 = alloca ptr, align 8
  %8 = alloca ptr, align 8
  %9 = alloca ptr, align 8
  %10 = alloca i32, align 4
  %11 = alloca i32, align 4
  %12 = alloca i32, align 4
  %13 = alloca ptr, align 8
  %14 = alloca ptr, align 8
  %15 = alloca ptr, align 8
  %16 = alloca i8, align 1
  %17 = alloca ptr, align 8
  %18 = alloca i32, align 4
  %19 = alloca %struct.except_stacknode, align 8
  %20 = alloca %struct.except_catch, align 8
  %21 = alloca ptr, align 8
  %22 = alloca ptr, align 8
  store ptr %0, ptr %7, align 8
  store ptr %1, ptr %8, align 8
  store ptr %2, ptr %9, align 8
  store i32 %3, ptr %10, align 4
  store i32 %4, ptr %11, align 4
  store i32 %5, ptr %12, align 4
  call void @llvm.lifetime.start.p0(i64 8, ptr %13) #11
  %23 = load ptr, ptr %8, align 8
  %24 = load i32, ptr %12, align 4
  %25 = load ptr, ptr %7, align 8
  %26 = load i32, ptr %10, align 4
  %27 = load i32, ptr %11, align 4
  %28 = call ptr @proto_tree_add_item(ptr noundef %23, i32 noundef %24, ptr noundef %25, i32 noundef %26, i32 noundef %27, i32 noundef 0)
  store ptr %28, ptr %13, align 8
  %29 = load i32, ptr @g_nas_5gs_decode_user_data_container_as, align 4
  %30 = icmp ne i32 %29, 0
  br i1 %30, label %31, label %189

31:                                               ; preds = %6
  call void @llvm.lifetime.start.p0(i64 8, ptr %14) #11
  call void @llvm.lifetime.start.p0(i64 8, ptr %15) #11
  %32 = load ptr, ptr %7, align 8
  %33 = load i32, ptr %10, align 4
  %34 = load i32, ptr %11, align 4
  %35 = call ptr @tvb_new_subset_length(ptr noundef %32, i32 noundef %33, i32 noundef %34)
  store ptr %35, ptr %14, align 8
  %36 = load i32, ptr @g_nas_5gs_decode_user_data_container_as, align 4
  %37 = icmp eq i32 %36, 1
  br i1 %37, label %38, label %66

38:                                               ; preds = %31
  call void @llvm.lifetime.start.p0(i64 1, ptr %16) #11
  %39 = load ptr, ptr %14, align 8
  %40 = call zeroext i8 @tvb_get_uint8(ptr noundef %39, i32 noundef 0)
  store i8 %40, ptr %16, align 1
  %41 = load i8, ptr %16, align 1
  %42 = zext i8 %41 to i32
  %43 = icmp sge i32 %42, 69
  br i1 %43, label %44, label %53

44:                                               ; preds = %38
  %45 = load i8, ptr %16, align 1
  %46 = zext i8 %45 to i32
  %47 = icmp sle i32 %46, 79
  br i1 %47, label %48, label %53

48:                                               ; preds = %44
  %49 = load i32, ptr %11, align 4
  %50 = icmp ugt i32 %49, 20
  br i1 %50, label %51, label %53

51:                                               ; preds = %48
  %52 = load ptr, ptr @ipv4_handle, align 8
  store volatile ptr %52, ptr %15, align 8
  br label %65

53:                                               ; preds = %48, %44, %38
  %54 = load i8, ptr %16, align 1
  %55 = zext i8 %54 to i32
  %56 = and i32 %55, 240
  %57 = icmp eq i32 %56, 96
  br i1 %57, label %58, label %63

58:                                               ; preds = %53
  %59 = load i32, ptr %11, align 4
  %60 = icmp ugt i32 %59, 40
  br i1 %60, label %61, label %63

61:                                               ; preds = %58
  %62 = load ptr, ptr @ipv6_handle, align 8
  store volatile ptr %62, ptr %15, align 8
  br label %64

63:                                               ; preds = %58, %53
  store volatile ptr null, ptr %15, align 8
  br label %64

64:                                               ; preds = %63, %61
  br label %65

65:                                               ; preds = %64, %51
  call void @llvm.lifetime.end.p0(i64 1, ptr %16) #11
  br label %74

66:                                               ; preds = %31
  %67 = load i32, ptr @g_nas_5gs_decode_user_data_container_as, align 4
  %68 = icmp eq i32 %67, 2
  br i1 %68, label %69, label %71

69:                                               ; preds = %66
  %70 = load ptr, ptr @non_ip_data_handle, align 8
  store volatile ptr %70, ptr %15, align 8
  br label %73

71:                                               ; preds = %66
  %72 = load ptr, ptr @ethernet_handle, align 8
  store volatile ptr %72, ptr %15, align 8
  br label %73

73:                                               ; preds = %71, %69
  br label %74

74:                                               ; preds = %73, %65
  %75 = load volatile ptr, ptr %15, align 8
  %76 = icmp ne ptr %75, null
  br i1 %76, label %77, label %188

77:                                               ; preds = %74
  %78 = load ptr, ptr %9, align 8
  %79 = getelementptr inbounds nuw %struct._packet_info, ptr %78, i32 0, i32 1
  %80 = load ptr, ptr %79, align 8
  call void @col_append_str(ptr noundef %80, i32 noundef 35, ptr noundef @.str.1537)
  %81 = load ptr, ptr %9, align 8
  %82 = getelementptr inbounds nuw %struct._packet_info, ptr %81, i32 0, i32 1
  %83 = load ptr, ptr %82, align 8
  call void @col_set_fence(ptr noundef %83, i32 noundef 35)
  %84 = load ptr, ptr %9, align 8
  %85 = getelementptr inbounds nuw %struct._packet_info, ptr %84, i32 0, i32 1
  %86 = load ptr, ptr %85, align 8
  call void @col_append_str(ptr noundef %86, i32 noundef 25, ptr noundef @.str.1538)
  %87 = load ptr, ptr %9, align 8
  %88 = getelementptr inbounds nuw %struct._packet_info, ptr %87, i32 0, i32 1
  %89 = load ptr, ptr %88, align 8
  call void @col_set_fence(ptr noundef %89, i32 noundef 25)
  call void @llvm.lifetime.start.p0(i64 8, ptr %17) #11
  call void @llvm.lifetime.start.p0(i64 4, ptr %18) #11
  store volatile i32 0, ptr %18, align 4
  call void @llvm.lifetime.start.p0(i64 24, ptr %19) #11
  call void @llvm.lifetime.start.p0(i64 248, ptr %20) #11
  call void @except_setup_try(ptr noundef %19, ptr noundef %20, ptr noundef @nas_5gs_decode_user_data_cont.catch_spec, i64 noundef 1)
  %90 = getelementptr inbounds nuw %struct.except_catch, ptr %20, i32 0, i32 3
  %91 = getelementptr inbounds [1 x %struct.__jmp_buf_tag], ptr %90, i64 0, i64 0
  %92 = call i32 @_setjmp(ptr noundef %91) #14
  %93 = icmp ne i32 %92, 0
  br i1 %93, label %94, label %96

94:                                               ; preds = %77
  %95 = getelementptr inbounds nuw %struct.except_catch, ptr %20, i32 0, i32 2
  store volatile ptr %95, ptr %17, align 8
  br label %97

96:                                               ; preds = %77
  store volatile ptr null, ptr %17, align 8
  br label %97

97:                                               ; preds = %96, %94
  %98 = load volatile i32, ptr %18, align 4
  %99 = and i32 %98, 1
  %100 = icmp ne i32 %99, 0
  br i1 %100, label %101, label %104

101:                                              ; preds = %97
  %102 = load volatile i32, ptr %18, align 4
  %103 = or i32 %102, 2
  store volatile i32 %103, ptr %18, align 4
  br label %104

104:                                              ; preds = %101, %97
  %105 = load volatile i32, ptr %18, align 4
  %106 = and i32 %105, -2
  store volatile i32 %106, ptr %18, align 4
  %107 = load volatile i32, ptr %18, align 4
  %108 = icmp eq i32 %107, 0
  br i1 %108, label %109, label %120

109:                                              ; preds = %104
  %110 = load volatile ptr, ptr %17, align 8
  %111 = icmp eq ptr %110, null
  br i1 %111, label %112, label %120

112:                                              ; preds = %109
  call void @llvm.lifetime.start.p0(i64 8, ptr %21) #11
  %113 = load ptr, ptr %8, align 8
  %114 = call ptr @proto_tree_get_root(ptr noundef %113)
  store ptr %114, ptr %21, align 8
  %115 = load volatile ptr, ptr %15, align 8
  %116 = load ptr, ptr %14, align 8
  %117 = load ptr, ptr %9, align 8
  %118 = load ptr, ptr %21, align 8
  %119 = call i32 @call_dissector_only(ptr noundef %115, ptr noundef %116, ptr noundef %117, ptr noundef %118, ptr noundef null)
  call void @llvm.lifetime.end.p0(i64 8, ptr %21) #11
  br label %120

120:                                              ; preds = %112, %109, %104
  %121 = load volatile i32, ptr %18, align 4
  %122 = icmp eq i32 %121, 0
  br i1 %122, label %123, label %174

123:                                              ; preds = %120
  %124 = load volatile ptr, ptr %17, align 8
  %125 = icmp ne ptr %124, null
  br i1 %125, label %126, label %174

126:                                              ; preds = %123
  %127 = load volatile ptr, ptr %17, align 8
  %128 = getelementptr inbounds nuw %struct.except_t, ptr %127, i32 0, i32 0
  %129 = getelementptr inbounds nuw %struct.except_id_t, ptr %128, i32 0, i32 1
  %130 = load volatile i64, ptr %129, align 8
  %131 = icmp eq i64 %130, 1
  br i1 %131, label %156, label %132

132:                                              ; preds = %126
  %133 = load volatile ptr, ptr %17, align 8
  %134 = getelementptr inbounds nuw %struct.except_t, ptr %133, i32 0, i32 0
  %135 = getelementptr inbounds nuw %struct.except_id_t, ptr %134, i32 0, i32 1
  %136 = load volatile i64, ptr %135, align 8
  %137 = icmp eq i64 %136, 4
  br i1 %137, label %156, label %138

138:                                              ; preds = %132
  %139 = load volatile ptr, ptr %17, align 8
  %140 = getelementptr inbounds nuw %struct.except_t, ptr %139, i32 0, i32 0
  %141 = getelementptr inbounds nuw %struct.except_id_t, ptr %140, i32 0, i32 1
  %142 = load volatile i64, ptr %141, align 8
  %143 = icmp eq i64 %142, 3
  br i1 %143, label %156, label %144

144:                                              ; preds = %138
  %145 = load volatile ptr, ptr %17, align 8
  %146 = getelementptr inbounds nuw %struct.except_t, ptr %145, i32 0, i32 0
  %147 = getelementptr inbounds nuw %struct.except_id_t, ptr %146, i32 0, i32 1
  %148 = load volatile i64, ptr %147, align 8
  %149 = icmp eq i64 %148, 2
  br i1 %149, label %156, label %150

150:                                              ; preds = %144
  %151 = load volatile ptr, ptr %17, align 8
  %152 = getelementptr inbounds nuw %struct.except_t, ptr %151, i32 0, i32 0
  %153 = getelementptr inbounds nuw %struct.except_id_t, ptr %152, i32 0, i32 1
  %154 = load volatile i64, ptr %153, align 8
  %155 = icmp eq i64 %154, 7
  br i1 %155, label %156, label %174

156:                                              ; preds = %150, %144, %138, %132, %126
  %157 = load volatile i32, ptr %18, align 4
  %158 = or i32 %157, 1
  store volatile i32 %158, ptr %18, align 4
  %159 = icmp ne i32 %158, 0
  br i1 %159, label %160, label %174

160:                                              ; preds = %156
  call void @llvm.lifetime.start.p0(i64 8, ptr %22) #11
  %161 = load ptr, ptr %13, align 8
  %162 = load i32, ptr @ett_nas_5gs_user_data_cont, align 4
  %163 = call ptr @proto_item_add_subtree(ptr noundef %161, i32 noundef %162)
  store ptr %163, ptr %22, align 8
  %164 = load ptr, ptr %14, align 8
  %165 = load ptr, ptr %9, align 8
  %166 = load ptr, ptr %22, align 8
  %167 = load volatile ptr, ptr %17, align 8
  %168 = getelementptr inbounds nuw %struct.except_t, ptr %167, i32 0, i32 0
  %169 = getelementptr inbounds nuw %struct.except_id_t, ptr %168, i32 0, i32 1
  %170 = load volatile i64, ptr %169, align 8
  %171 = load volatile ptr, ptr %17, align 8
  %172 = getelementptr inbounds nuw %struct.except_t, ptr %171, i32 0, i32 1
  %173 = load volatile ptr, ptr %172, align 8
  call void @show_exception(ptr noundef %164, ptr noundef %165, ptr noundef %166, i64 noundef %170, ptr noundef %173)
  call void @llvm.lifetime.end.p0(i64 8, ptr %22) #11
  br label %174

174:                                              ; preds = %160, %156, %150, %123, %120
  %175 = load volatile i32, ptr %18, align 4
  %176 = and i32 %175, 1
  %177 = icmp ne i32 %176, 0
  br i1 %177, label %183, label %178

178:                                              ; preds = %174
  %179 = load volatile ptr, ptr %17, align 8
  %180 = icmp ne ptr %179, null
  br i1 %180, label %181, label %183

181:                                              ; preds = %178
  %182 = load volatile ptr, ptr %17, align 8
  call void @except_rethrow(ptr noundef %182) #15
  unreachable

183:                                              ; preds = %178, %174
  %184 = getelementptr inbounds nuw %struct.except_catch, ptr %20, i32 0, i32 2
  %185 = getelementptr inbounds nuw %struct.except_t, ptr %184, i32 0, i32 2
  %186 = load volatile ptr, ptr %185, align 8
  call void @except_free(ptr noundef %186)
  %187 = call ptr @except_pop()
  call void @llvm.lifetime.end.p0(i64 248, ptr %20) #11
  call void @llvm.lifetime.end.p0(i64 24, ptr %19) #11
  call void @llvm.lifetime.end.p0(i64 4, ptr %18) #11
  call void @llvm.lifetime.end.p0(i64 8, ptr %17) #11
  br label %188

188:                                              ; preds = %183, %74
  call void @llvm.lifetime.end.p0(i64 8, ptr %15) #11
  call void @llvm.lifetime.end.p0(i64 8, ptr %14) #11
  br label %189

189:                                              ; preds = %188, %6
  call void @llvm.lifetime.end.p0(i64 8, ptr %13) #11
  ret void
}