; Function Attrs: null_pointer_is_valid sspstrong uwtable
define internal fastcc void @nas_5gs_decode_user_data_cont(ptr noundef %0, ptr noundef %1, ptr noundef %2, i32 noundef %3, i32 noundef %4, i32 noundef %5) unnamed_addr #0 {
  %7 = alloca ptr, align 8
  %8 = alloca ptr, align 8
  %9 = alloca i32, align 4
  %10 = alloca %struct.except_stacknode, align 8
  %11 = alloca %struct.except_catch, align 8
  %12 = call ptr @proto_tree_add_item(ptr noundef %1, i32 noundef %5, ptr noundef %0, i32 noundef %3, i32 noundef %4, i32 noundef 0)
  %13 = load i32, ptr @g_nas_5gs_decode_user_data_container_as, align 4
  %.not = icmp eq i32 %13, 0
  br i1 %.not, label %93, label %14

14:                                               ; preds = %6
  call void @llvm.lifetime.start.p0(i64 8, ptr nonnull %7)
  %15 = call ptr @tvb_new_subset_length(ptr noundef %0, i32 noundef %3, i32 noundef %4)
  %16 = load i32, ptr @g_nas_5gs_decode_user_data_container_as, align 4
  switch i32 %16, label %30 [
    i32 1, label %17
    i32 2, label %28
  ]

17:                                               ; preds = %14
  %18 = call zeroext i8 @tvb_get_uint8(ptr noundef %15, i32 noundef 0)
  %19 = add i8 %18, -69
  %or.cond = icmp ult i8 %19, 11
  %20 = icmp ugt i32 %4, 20
  %or.cond4 = and i1 %20, %or.cond
  br i1 %or.cond4, label %21, label %23

21:                                               ; preds = %17
  %22 = load ptr, ptr @ipv4_handle, align 8
  br label %32

23:                                               ; preds = %17
  %24 = and i8 %18, -16
  %25 = icmp eq i8 %24, 96
  %26 = icmp ugt i32 %4, 40
  %or.cond6 = and i1 %26, %25
  %27 = load ptr, ptr @ipv6_handle, align 8
  %spec.select = select i1 %or.cond6, ptr %27, ptr null
  br label %32

28:                                               ; preds = %14
  %29 = load ptr, ptr @non_ip_data_handle, align 8
  br label %32

30:                                               ; preds = %14
  %31 = load ptr, ptr @ethernet_handle, align 8
  br label %32

32:                                               ; preds = %23, %21, %28, %30
  %.sink = phi ptr [ %22, %21 ], [ %29, %28 ], [ %31, %30 ], [ %spec.select, %23 ]
  store volatile ptr %.sink, ptr %7, align 8
  %.0..0..0..0.28 = load volatile ptr, ptr %7, align 8
  %.not51 = icmp eq ptr %.0..0..0..0.28, null
  br i1 %.not51, label %92, label %33

33:                                               ; preds = %32
  %34 = getelementptr inbounds nuw i8, ptr %2, i64 8
  %35 = load ptr, ptr %34, align 8
  call void @col_append_str(ptr noundef %35, i32 noundef 35, ptr noundef nonnull @.str.1537)
  %36 = load ptr, ptr %34, align 8
  call void @col_set_fence(ptr noundef %36, i32 noundef 35)
  %37 = load ptr, ptr %34, align 8
  call void @col_append_str(ptr noundef %37, i32 noundef 25, ptr noundef nonnull @.str.1538)
  %38 = load ptr, ptr %34, align 8
  call void @col_set_fence(ptr noundef %38, i32 noundef 25)
  call void @llvm.lifetime.start.p0(i64 8, ptr nonnull %8)
  call void @llvm.lifetime.start.p0(i64 4, ptr nonnull %9)
  store volatile i32 0, ptr %9, align 4
  call void @llvm.lifetime.start.p0(i64 24, ptr nonnull %10) #12
  call void @llvm.lifetime.start.p0(i64 248, ptr nonnull %11) #12
  call void @except_setup_try(ptr noundef nonnull %10, ptr noundef nonnull %11, ptr noundef nonnull @nas_5gs_decode_user_data_cont.catch_spec, i64 noundef 1)
  %39 = getelementptr inbounds nuw i8, ptr %11, i64 48
  %40 = call i32 @_setjmp(ptr noundef nonnull %39) #15
  %.not52 = icmp eq i32 %40, 0
  %41 = getelementptr inbounds nuw i8, ptr %11, i64 16
  %.sink57 = select i1 %.not52, ptr null, ptr %41
  store volatile ptr %.sink57, ptr %8, align 8
  %.0..0..0..0.8 = load volatile i32, ptr %9, align 4
  %42 = and i32 %.0..0..0..0.8, 1
  %.not53 = icmp eq i32 %42, 0
  br i1 %.not53, label %45, label %43

43:                                               ; preds = %33
  %.0..0..0..0.9 = load volatile i32, ptr %9, align 4
  %44 = or i32 %.0..0..0..0.9, 2
  store volatile i32 %44, ptr %9, align 4
  br label %45

45:                                               ; preds = %43, %33
  %.0..0..0..0.10 = load volatile i32, ptr %9, align 4
  %46 = and i32 %.0..0..0..0.10, -2
  store volatile i32 %46, ptr %9, align 4
  %.0..0..0..0.11 = load volatile i32, ptr %9, align 4
  %47 = icmp eq i32 %.0..0..0..0.11, 0
  br i1 %47, label %48, label %53

48:                                               ; preds = %45
  %.0..0..0..0.15 = load volatile ptr, ptr %8, align 8
  %49 = icmp eq ptr %.0..0..0..0.15, null
  br i1 %49, label %50, label %53

50:                                               ; preds = %48
  %51 = call ptr @proto_tree_get_root(ptr noundef %1)
  %.0..0..0..0.29 = load volatile ptr, ptr %7, align 8
  %52 = call i32 @call_dissector_only(ptr noundef %.0..0..0..0.29, ptr noundef %15, ptr noundef %2, ptr noundef %51, ptr noundef null)
  br label %53

53:                                               ; preds = %50, %48, %45
  %.0..0..0..0.12 = load volatile i32, ptr %9, align 4
  %54 = icmp eq i32 %.0..0..0..0.12, 0
  br i1 %54, label %55, label %84

55:                                               ; preds = %53
  %.0..0..0..0.16 = load volatile ptr, ptr %8, align 8
  %.not54 = icmp eq ptr %.0..0..0..0.16, null
  br i1 %.not54, label %84, label %56

56:                                               ; preds = %55
  %.0..0..0..0.17 = load volatile ptr, ptr %8, align 8
  %57 = getelementptr inbounds nuw i8, ptr %.0..0..0..0.17, i64 8
  %58 = load volatile i64, ptr %57, align 8
  %59 = icmp eq i64 %58, 1
  br i1 %59, label %76, label %60

60:                                               ; preds = %56
  %.0..0..0..0.18 = load volatile ptr, ptr %8, align 8
  %61 = getelementptr inbounds nuw i8, ptr %.0..0..0..0.18, i64 8
  %62 = load volatile i64, ptr %61, align 8
  %63 = icmp eq i64 %62, 4
  br i1 %63, label %76, label %64

64:                                               ; preds = %60
  %.0..0..0..0.19 = load volatile ptr, ptr %8, align 8
  %65 = getelementptr inbounds nuw i8, ptr %.0..0..0..0.19, i64 8
  %66 = load volatile i64, ptr %65, align 8
  %67 = icmp eq i64 %66, 3
  br i1 %67, label %76, label %68

68:                                               ; preds = %64
  %.0..0..0..0.20 = load volatile ptr, ptr %8, align 8
  %69 = getelementptr inbounds nuw i8, ptr %.0..0..0..0.20, i64 8
  %70 = load volatile i64, ptr %69, align 8
  %71 = icmp eq i64 %70, 2
  br i1 %71, label %76, label %72

72:                                               ; preds = %68
  %.0..0..0..0.21 = load volatile ptr, ptr %8, align 8
  %73 = getelementptr inbounds nuw i8, ptr %.0..0..0..0.21, i64 8
  %74 = load volatile i64, ptr %73, align 8
  %75 = icmp eq i64 %74, 7
  br i1 %75, label %76, label %84

76:                                               ; preds = %72, %68, %64, %60, %56
  %.0..0..0..0.13 = load volatile i32, ptr %9, align 4
  %77 = or i32 %.0..0..0..0.13, 1
  store volatile i32 %77, ptr %9, align 4
  %78 = load i32, ptr @ett_nas_5gs_user_data_cont, align 4
  %79 = call ptr @proto_item_add_subtree(ptr noundef %12, i32 noundef %78)
  %.0..0..0..0.22 = load volatile ptr, ptr %8, align 8
  %80 = getelementptr inbounds nuw i8, ptr %.0..0..0..0.22, i64 8
  %81 = load volatile i64, ptr %80, align 8
  %.0..0..0..0.23 = load volatile ptr, ptr %8, align 8
  %82 = getelementptr inbounds nuw i8, ptr %.0..0..0..0.23, i64 16
  %83 = load volatile ptr, ptr %82, align 8
  call void @show_exception(ptr noundef %15, ptr noundef %2, ptr noundef %79, i64 noundef %81, ptr noundef %83)
  br label %84

84:                                               ; preds = %76, %72, %55, %53
  %.0..0..0..0.14 = load volatile i32, ptr %9, align 4
  %85 = and i32 %.0..0..0..0.14, 1
  %.not55 = icmp eq i32 %85, 0
  br i1 %.not55, label %86, label %88

86:                                               ; preds = %84
  %.0..0..0..0.24 = load volatile ptr, ptr %8, align 8
  %.not56 = icmp eq ptr %.0..0..0..0.24, null
  br i1 %.not56, label %88, label %87

87:                                               ; preds = %86
  %.0..0..0..0.25 = load volatile ptr, ptr %8, align 8
  call void @except_rethrow(ptr noundef %.0..0..0..0.25) #16
  unreachable

88:                                               ; preds = %86, %84
  %89 = getelementptr inbounds nuw i8, ptr %11, i64 40
  %90 = load volatile ptr, ptr %89, align 8
  call void @except_free(ptr noundef %90)
  %91 = call ptr @except_pop()
  call void @llvm.lifetime.end.p0(i64 248, ptr nonnull %11) #12
  call void @llvm.lifetime.end.p0(i64 24, ptr nonnull %10) #12
  call void @llvm.lifetime.end.p0(i64 4, ptr nonnull %9)
  call void @llvm.lifetime.end.p0(i64 8, ptr nonnull %8)
  br label %92

92:                                               ; preds = %88, %32
  call void @llvm.lifetime.end.p0(i64 8, ptr nonnull %7)
  br label %93

93:                                               ; preds = %92, %6
  ret void
}